target datalayout = "e-m:e-p270:32:32-p271:32:32-p272:64:64-i64:64-i128:128-f80:128-n8:16:32:64-S128"
target triple = "x86_64-pc-linux-gnu"

%struct._object = type { i64, ptr }
%struct.tagPyArrayObject_fields = type { %struct._object, ptr, i32, ptr, ptr, ptr, ptr, i32, ptr, ptr }

@opencv_ARRAY_API = external global ptr, align 8

; Function Attrs: mustprogress nounwind uwtable
define internal noundef i32 @_ZN12_GLOBAL__N_111asNumpyTypeIfEE9NPY_TYPESv() #5 {
  ret i32 11
}

; Function Attrs: mustprogress nounwind uwtable
define internal noundef i32 @_ZL11_Py_IS_TYPEPK7_objectPK11_typeobject(ptr noundef %0, ptr noundef %1) #5 {
  %3 = alloca ptr, align 8
  %4 = alloca ptr, align 8
  store ptr %0, ptr %3, align 8
  store ptr %1, ptr %4, align 8
  %5 = load ptr, ptr %3, align 8
  %6 = getelementptr inbounds %struct._object, ptr %5, i32 0, i32 1
  %7 = load ptr, ptr %6, align 8
  %8 = load ptr, ptr %4, align 8
  %9 = icmp eq ptr %7, %8
  %10 = zext i1 %9 to i32
  ret i32 %10
}

; Function Attrs: mustprogress uwtable
define internal noundef zeroext i1 @_ZN12_GLOBAL__N_117canBeSafelyCastedIfEEbP7_objectP14_PyArray_Descr(ptr noundef %0, ptr noundef %1) #4 {
  %3 = alloca ptr, align 8
  %4 = alloca ptr, align 8
  store ptr %0, ptr %3, align 8
  store ptr %1, ptr %4, align 8
  %5 = load ptr, ptr @opencv_ARRAY_API, align 8
  %6 = getelementptr inbounds ptr, ptr %5, i64 53
  %7 = load ptr, ptr %6, align 8
  %8 = load ptr, ptr @opencv_ARRAY_API, align 8
  %9 = getelementptr inbounds ptr, ptr %8, i64 57
  %10 = load ptr, ptr %9, align 8
  %11 = load ptr, ptr %3, align 8
  %12 = call noundef ptr %10(ptr noundef %11)
  %13 = load ptr, ptr %4, align 8
  %14 = call noundef zeroext i8 %7(ptr noundef %12, ptr noundef %13)
  %15 = zext i8 %14 to i32
  %16 = icmp ne i32 %15, 0
  ret i1 %16
}

; Function Attrs: mustprogress uwtable
define internal noundef ptr @_ZN12_GLOBAL__N_122getNumpyTypeDescriptorIfEEP14_PyArray_Descrv() #4 {
  %1 = load ptr, ptr @opencv_ARRAY_API, align 8
  %2 = getelementptr inbounds ptr, ptr %1, i64 45
  %3 = load ptr, ptr %2, align 8
  %4 = call noundef i32 @_ZN12_GLOBAL__N_111asNumpyTypeIfEE9NPY_TYPESv()
  %5 = call noundef ptr %3(i32 noundef %4)
  ret ptr %5
}

; Function Attrs: mustprogress nounwind uwtable
define internal noundef i32 @_ZL12PyArray_NDIMPK16tagPyArrayObject(ptr noundef %0) #5 {
  %2 = alloca ptr, align 8
  store ptr %0, ptr %2, align 8
  %3 = load ptr, ptr %2, align 8
  %4 = getelementptr inbounds %struct.tagPyArrayObject_fields, ptr %3, i32 0, i32 2
  %5 = load i32, ptr %4, align 8
  ret i32 %5
}

; Function Attrs: mustprogress uwtable
define internal noundef i32 @_ZL19_PyObject_TypeCheckP7_objectP11_typeobject(ptr noundef %0, ptr noundef %1) #4 {
  %3 = alloca ptr, align 8
  %4 = alloca ptr, align 8
  store ptr %0, ptr %3, align 8
  store ptr %1, ptr %4, align 8
  %5 = load ptr, ptr %3, align 8
  %6 = load ptr, ptr %4, align 8
  %7 = call noundef i32 @_ZL11_Py_IS_TYPEPK7_objectPK11_typeobject(ptr noundef %5, ptr noundef %6)
  %8 = icmp ne i32 %7, 0
  br i1 %8, label %16, label %9

9:                                                ; preds = %2
  %10 = load ptr, ptr %3, align 8
  %11 = getelementptr inbounds %struct._object, ptr %10, i32 0, i32 1
  %12 = load ptr, ptr %11, align 8
  %13 = load ptr, ptr %4, align 8
  %14 = call i32 @PyType_IsSubtype(ptr noundef %12, ptr noundef %13)
  %15 = icmp ne i32 %14, 0
  br label %16

16:                                               ; preds = %9, %2
  %17 = phi i1 [ true, %2 ], [ %15, %9 ]
  %18 = zext i1 %17 to i32
  ret i32 %18
}

; Function Attrs: mustprogress uwtable
define internal noundef zeroext i1 @_ZN12_GLOBAL__N_116parseNumpyScalarIfEEbP7_objectRT_(ptr noundef %0, ptr noundef nonnull align 4 dereferenceable(4) %1) #4 {
  %3 = alloca i1, align 1
  %4 = alloca ptr, align 8
  %5 = alloca ptr, align 8
  %6 = alloca ptr, align 8
  store ptr %0, ptr %4, align 8
  store ptr %1, ptr %5, align 8
  %7 = load ptr, ptr %4, align 8
  %8 = load ptr, ptr @opencv_ARRAY_API, align 8
  %9 = getelementptr inbounds ptr, ptr %8, i64 10
  %10 = load ptr, ptr %9, align 8
  %11 = call noundef i32 @_ZL19_PyObject_TypeCheckP7_objectP11_typeobject(ptr noundef %7, ptr noundef %10)
  %12 = icmp ne i32 %11, 0
  br i1 %12, label %24, label %13

13:                                               ; preds = %2
  %14 = load ptr, ptr %4, align 8
  %15 = load ptr, ptr @opencv_ARRAY_API, align 8
  %16 = getelementptr inbounds ptr, ptr %15, i64 2
  %17 = load ptr, ptr %16, align 8
  %18 = call noundef i32 @_ZL19_PyObject_TypeCheckP7_objectP11_typeobject(ptr noundef %14, ptr noundef %17)
  %19 = icmp ne i32 %18, 0
  br i1 %19, label %20, label %38

20:                                               ; preds = %13
  %21 = load ptr, ptr %4, align 8
  %22 = call noundef i32 @_ZL12PyArray_NDIMPK16tagPyArrayObject(ptr noundef %21)
  %23 = icmp eq i32 %22, 0
  br i1 %23, label %24, label %38

24:                                               ; preds = %20, %2
  %25 = call noundef ptr @_ZN12_GLOBAL__N_122getNumpyTypeDescriptorIfEEP14_PyArray_Descrv()
  store ptr %25, ptr %6, align 8
  %26 = load ptr, ptr %4, align 8
  %27 = load ptr, ptr %6, align 8
  %28 = call noundef zeroext i1 @_ZN12_GLOBAL__N_117canBeSafelyCastedIfEEbP7_objectP14_PyArray_Descr(ptr noundef %26, ptr noundef %27)
  br i1 %28, label %29, label %37

29:                                               ; preds = %24
  %30 = load ptr, ptr @opencv_ARRAY_API, align 8
  %31 = getelementptr inbounds ptr, ptr %30, i64 63
  %32 = load ptr, ptr %31, align 8
  %33 = load ptr, ptr %4, align 8
  %34 = load ptr, ptr %5, align 8
  %35 = load ptr, ptr %6, align 8
  %36 = call noundef i32 %32(ptr noundef %33, ptr noundef %34, ptr noundef %35)
  store i1 true, ptr %3, align 1
  br label %39

37:                                               ; preds = %24
  br label %38

38:                                               ; preds = %37, %20, %13
  store i1 false, ptr %3, align 1
  br label %39

39:                                               ; preds = %38, %29
  %40 = load i1, ptr %3, align 1
  ret i1 %40
}