; Function Attrs: mustprogress uwtable
define internal fastcc noundef zeroext i1 @_ZN12_GLOBAL__N_116parseNumpyScalarIfEEbP7_objectRT_(ptr noundef %0, ptr noundef nonnull align 4 dereferenceable(4) %1) unnamed_addr #3 {
  %3 = load ptr, ptr @opencv_ARRAY_API, align 8
  %4 = getelementptr inbounds i8, ptr %3, i64 80
  %5 = load ptr, ptr %4, align 8
  %6 = getelementptr i8, ptr %0, i64 8
  %.val10 = load ptr, ptr %6, align 8
  %.not.i = icmp eq ptr %.val10, %5
  br i1 %.not.i, label %_ZL19_PyObject_TypeCheckP7_objectP11_typeobject.exit.thread, label %_ZL19_PyObject_TypeCheckP7_objectP11_typeobject.exit

_ZL19_PyObject_TypeCheckP7_objectP11_typeobject.exit: ; preds = %2
  %7 = tail call i32 @PyType_IsSubtype(ptr noundef %.val10, ptr noundef %5)
  %.not16 = icmp eq i32 %7, 0
  %.pre18 = load ptr, ptr @opencv_ARRAY_API, align 8
  br i1 %.not16, label %8, label %_ZL19_PyObject_TypeCheckP7_objectP11_typeobject.exit.thread

8:                                                ; preds = %_ZL19_PyObject_TypeCheckP7_objectP11_typeobject.exit
  %9 = getelementptr inbounds i8, ptr %.pre18, i64 16
  %10 = load ptr, ptr %9, align 8
  %.val = load ptr, ptr %6, align 8
  %.not.i12 = icmp eq ptr %.val, %10
  br i1 %.not.i12, label %_ZL19_PyObject_TypeCheckP7_objectP11_typeobject.exit13.thread, label %_ZL19_PyObject_TypeCheckP7_objectP11_typeobject.exit13

_ZL19_PyObject_TypeCheckP7_objectP11_typeobject.exit13: ; preds = %8
  %11 = tail call i32 @PyType_IsSubtype(ptr noundef %.val, ptr noundef %10)
  %.not = icmp eq i32 %11, 0
  br i1 %.not, label %30, label %_ZL19_PyObject_TypeCheckP7_objectP11_typeobject.exit13.thread

_ZL19_PyObject_TypeCheckP7_objectP11_typeobject.exit13.thread: ; preds = %8, %_ZL19_PyObject_TypeCheckP7_objectP11_typeobject.exit13
  %12 = getelementptr i8, ptr %0, i64 24
  %.val11 = load i32, ptr %12, align 8
  %13 = icmp eq i32 %.val11, 0
  br i1 %13, label %_ZL19_PyObject_TypeCheckP7_objectP11_typeobject.exit13.thread._ZL19_PyObject_TypeCheckP7_objectP11_typeobject.exit.thread_crit_edge, label %30

_ZL19_PyObject_TypeCheckP7_objectP11_typeobject.exit13.thread._ZL19_PyObject_TypeCheckP7_objectP11_typeobject.exit.thread_crit_edge: ; preds = %_ZL19_PyObject_TypeCheckP7_objectP11_typeobject.exit13.thread
  %.pre = load ptr, ptr @opencv_ARRAY_API, align 8
  br label %_ZL19_PyObject_TypeCheckP7_objectP11_typeobject.exit.thread

_ZL19_PyObject_TypeCheckP7_objectP11_typeobject.exit.thread: ; preds = %_ZL19_PyObject_TypeCheckP7_objectP11_typeobject.exit13.thread._ZL19_PyObject_TypeCheckP7_objectP11_typeobject.exit.thread_crit_edge, %2, %_ZL19_PyObject_TypeCheckP7_objectP11_typeobject.exit
  %14 = phi ptr [ %.pre, %_ZL19_PyObject_TypeCheckP7_objectP11_typeobject.exit13.thread._ZL19_PyObject_TypeCheckP7_objectP11_typeobject.exit.thread_crit_edge ], [ %3, %2 ], [ %.pre18, %_ZL19_PyObject_TypeCheckP7_objectP11_typeobject.exit ]
  %15 = getelementptr inbounds i8, ptr %14, i64 360
  %16 = load ptr, ptr %15, align 8
  %17 = tail call noundef ptr %16(i32 noundef 11)
  %18 = load ptr, ptr @opencv_ARRAY_API, align 8
  %19 = getelementptr inbounds i8, ptr %18, i64 424
  %20 = load ptr, ptr %19, align 8
  %21 = getelementptr inbounds i8, ptr %18, i64 456
  %22 = load ptr, ptr %21, align 8
  %23 = tail call noundef ptr %22(ptr noundef nonnull %0)
  %24 = tail call noundef zeroext i8 %20(ptr noundef %23, ptr noundef %17)
  %.not17 = icmp eq i8 %24, 0
  br i1 %.not17, label %30, label %25

25:                                               ; preds = %_ZL19_PyObject_TypeCheckP7_objectP11_typeobject.exit.thread
  %26 = load ptr, ptr @opencv_ARRAY_API, align 8
  %27 = getelementptr inbounds i8, ptr %26, i64 504
  %28 = load ptr, ptr %27, align 8
  %29 = tail call noundef i32 %28(ptr noundef nonnull %0, ptr noundef nonnull %1, ptr noundef %17)
  br label %30

30:                                               ; preds = %_ZL19_PyObject_TypeCheckP7_objectP11_typeobject.exit13, %_ZL19_PyObject_TypeCheckP7_objectP11_typeobject.exit13.thread, %_ZL19_PyObject_TypeCheckP7_objectP11_typeobject.exit.thread, %25
  %.0 = phi i1 [ true, %25 ], [ false, %_ZL19_PyObject_TypeCheckP7_objectP11_typeobject.exit.thread ], [ false, %_ZL19_PyObject_TypeCheckP7_objectP11_typeobject.exit13.thread ], [ false, %_ZL19_PyObject_TypeCheckP7_objectP11_typeobject.exit13 ]
  ret i1 %.0
}